Certificate:
    Data:
        Version: 3 (0x2)
        Serial Number: 2 (0x2)
        Signature Algorithm: sha256WithRSAEncryption
        Issuer: C=FR, ST=Radius, L=Somewhere, O=Example Inc./emailAddress=admin@example.org, CN=Example Certificate Authority
        Validity
            Not Before: Aug 25 04:48:25 2021 GMT
            Not After : Oct 24 04:48:25 2021 GMT
        Subject: C=FR, ST=Radius, O=Example Inc., CN=user@example.org/emailAddress=user@example.org
        Subject Public Key Info:
            Public Key Algorithm: rsaEncryption
                RSA Public-Key: (2048 bit)
                Modulus:
                    00:f1:f6:64:74:3a:a4:16:da:79:78:37:86:55:30:
                    09:a9:97:db:2b:0a:2a:96:15:8c:3b:7e:e7:48:32:
                    cc:7b:3b:91:7c:a0:dc:7d:27:46:6f:40:6c:5d:90:
                    59:44:5a:2d:f4:d0:fa:9d:da:8e:6c:7f:e6:35:e1:
                    27:44:4d:14:9e:1f:fc:16:29:3b:41:a2:22:5f:0b:
                    c4:35:c6:70:91:6e:97:9d:0f:d9:fa:9e:42:2e:cf:
                    cd:fa:c9:62:63:59:9b:e1:2e:4e:87:0f:02:b4:e3:
                    50:6c:c3:31:b0:cc:c4:3d:41:40:8b:41:b3:62:aa:
                    b1:6a:66:28:62:da:cd:14:ff:f0:bc:e6:08:bb:aa:
                    a4:37:18:14:62:98:29:a0:6d:7e:72:6f:ea:73:4a:
                    f0:50:94:5a:82:59:e7:5b:47:b3:10:c2:80:98:9f:
                    fc:6e:9a:c6:f9:d8:ca:9c:d0:71:01:2b:b8:e8:92:
                    2d:17:70:25:4d:b9:4e:54:43:7d:df:b2:87:58:82:
                    7d:dd:dc:62:29:07:c0:ef:a5:45:02:86:f6:59:1b:
                    bf:02:e9:00:9e:87:f1:e9:44:69:d9:5f:31:aa:6e:
                    ea:7f:3a:5b:a0:d1:78:cc:7f:6c:4c:6c:c4:d0:ce:
                    47:44:5a:18:ce:af:5b:a9:7d:3c:eb:a3:28:6c:8d:
                    3a:e3
                Exponent: 65537 (0x10001)
        X509v3 extensions:
            X509v3 Extended Key Usage: 
                TLS Web Client Authentication
            X509v3 CRL Distribution Points: 

                Full Name:
                  URI:http://www.example.com/example_ca.crl

    Signature Algorithm: sha256WithRSAEncryption
         60:b1:f6:4f:12:c2:5b:b1:bc:e3:b7:b2:a1:55:36:7d:49:c0:
         d5:08:2b:8c:e5:fe:b5:37:fa:af:94:eb:81:eb:fb:85:d2:0c:
         f8:c6:1c:a3:05:51:f4:0c:3d:5e:16:60:54:86:4a:c2:2f:e8:
         f1:94:41:0a:ac:46:50:4d:a0:57:37:fa:29:bc:f1:8a:32:0a:
         73:9c:65:a9:07:62:20:52:c8:43:85:4f:1b:c0:05:f2:a0:01:
         91:f4:d6:c1:91:8c:53:16:41:10:a6:2a:6e:5e:e3:8b:50:23:
         86:26:75:64:d5:33:5b:73:71:34:70:f5:de:21:4c:31:f1:64:
         82:9a:97:e6:08:14:a4:ca:60:dd:c5:2b:4d:82:ae:9f:05:a6:
         5f:63:41:24:37:c8:5c:f8:4c:6f:ee:3e:c4:d1:ee:69:2d:92:
         a2:08:98:bc:df:32:28:19:77:d0:3e:96:45:71:09:4b:30:eb:
         34:b5:ae:cf:40:b2:52:d9:41:31:4c:d0:9d:c5:8b:7e:8d:bf:
         d0:b5:52:f3:1e:aa:31:56:c2:34:f0:68:3e:d9:d0:d8:eb:6a:
         ce:3c:f3:3c:cb:ad:07:5e:61:df:6e:0b:95:f3:95:b6:07:06:
         1a:b7:15:a1:98:53:56:bb:4c:9f:f2:35:1c:3b:d2:4f:63:67:
         11:73:72:19
-----BEGIN CERTIFICATE-----
MIIDzzCCAregAwIBAgIBAjANBgkqhkiG9w0BAQsFADCBkzELMAkGA1UEBhMCRlIx
DzANBgNVBAgMBlJhZGl1czESMBAGA1UEBwwJU29tZXdoZXJlMRUwEwYDVQQKDAxF
eGFtcGxlIEluYy4xIDAeBgkqhkiG9w0BCQEWEWFkbWluQGV4YW1wbGUub3JnMSYw
JAYDVQQDDB1FeGFtcGxlIENlcnRpZmljYXRlIEF1dGhvcml0eTAeFw0yMTA4MjUw
NDQ4MjVaFw0yMTEwMjQwNDQ4MjVaMHExCzAJBgNVBAYTAkZSMQ8wDQYDVQQIDAZS
YWRpdXMxFTATBgNVBAoMDEV4YW1wbGUgSW5jLjEZMBcGA1UEAwwQdXNlckBleGFt
cGxlLm9yZzEfMB0GCSqGSIb3DQEJARYQdXNlckBleGFtcGxlLm9yZzCCASIwDQYJ
KoZIhvcNAQEBBQADggEPADCCAQoCggEBAPH2ZHQ6pBbaeXg3hlUwCamX2ysKKpYV
jDt+50gyzHs7kXyg3H0nRm9AbF2QWURaLfTQ+p3ajmx/5jXhJ0RNFJ4f/BYpO0Gi
Il8LxDXGcJFul50P2fqeQi7PzfrJYmNZm+EuTocPArTjUGzDMbDMxD1BQItBs2Kq
sWpmKGLazRT/8LzmCLuqpDcYFGKYKaBtfnJv6nNK8FCUWoJZ51tHsxDCgJif/G6a
xvnYypzQcQEruOiSLRdwJU25TlRDfd+yh1iCfd3cYikHwO+lRQKG9lkbvwLpAJ6H
8elEadlfMapu6n86W6DReMx/bExsxNDOR0RaGM6vW6l9POujKGyNOuMCAwEAAaNP
ME0wEwYDVR0lBAwwCgYIKwYBBQUHAwIwNgYDVR0fBC8wLTAroCmgJ4YlaHR0cDov
L3d3dy5leGFtcGxlLmNvbS9leGFtcGxlX2NhLmNybDANBgkqhkiG9w0BAQsFAAOC
AQEAYLH2TxLCW7G847eyoVU2fUnA1QgrjOX+tTf6r5Trgev7hdIM+MYcowVR9Aw9
XhZgVIZKwi/o8ZRBCqxGUE2gVzf6KbzxijIKc5xlqQdiIFLIQ4VPG8AF8qABkfTW
wZGMUxZBEKYqbl7ji1AjhiZ1ZNUzW3NxNHD13iFMMfFkgpqX5ggUpMpg3cUrTYKu
nwWmX2NBJDfIXPhMb+4+xNHuaS2SogiYvN8yKBl30D6WRXEJSzDrNLWuz0CyUtlB
MUzQncWLfo2/0LVS8x6qMVbCNPBoPtnQ2OtqzjzzPMutB15h324LlfOVtgcGGrcV
oZhTVrtMn/I1HDvST2NnEXNyGQ==
-----END CERTIFICATE-----
