Certificate:
    Data:
        Version: 3 (0x2)
        Serial Number: 1 (0x1)
        Signature Algorithm: sha256WithRSAEncryption
        Issuer: C=FR, ST=Radius, L=Somewhere, O=Example Inc./emailAddress=admin@example.org, CN=Example Certificate Authority
        Validity
            Not Before: Aug 25 04:48:25 2021 GMT
            Not After : Oct 24 04:48:25 2021 GMT
        Subject: C=FR, ST=Radius, O=Example Inc., CN=Example Server Certificate/emailAddress=admin@example.org
        Subject Public Key Info:
            Public Key Algorithm: rsaEncryption
                RSA Public-Key: (2048 bit)
                Modulus:
                    00:9e:0c:d3:35:83:23:f3:b2:dd:45:67:a2:c6:a1:
                    ac:c7:24:89:b1:62:c8:d9:d7:3a:77:27:88:d6:8c:
                    65:b3:d5:0e:37:c4:8d:2a:f9:86:f1:aa:56:0d:6b:
                    68:12:f9:dd:05:fb:eb:0e:c4:5a:d6:f2:e1:7d:b2:
                    28:ef:1d:61:00:d5:d1:82:92:ec:ba:e6:11:17:da:
                    41:ab:be:d2:78:dd:ff:7b:2d:a0:e8:b1:86:46:83:
                    09:40:14:4b:44:6e:54:14:ef:88:f4:74:e3:e6:80:
                    c7:d3:17:fd:6a:88:8b:53:dc:5a:94:34:1a:3f:75:
                    d5:34:b7:d5:c2:0b:f1:a1:10:35:bb:d2:14:b4:20:
                    46:06:33:c4:eb:58:a9:bc:b3:6a:e0:e9:7c:59:6a:
                    73:84:61:9b:08:40:51:f7:ef:da:cd:09:27:7d:1a:
                    6e:7a:a5:60:05:35:a8:f2:3e:a8:87:b1:94:d9:2a:
                    e8:13:6b:1c:ef:6e:5b:b8:b6:8a:79:bc:c5:2a:71:
                    7a:81:bb:02:20:33:2a:8e:17:53:d4:3f:56:d8:f0:
                    6f:97:9b:55:26:ee:fb:0a:57:eb:73:92:33:f4:35:
                    68:76:09:67:3a:6b:51:72:62:e7:50:00:57:11:bc:
                    9b:e1:3b:96:91:bc:c0:f3:ff:ea:36:b6:7d:f5:0b:
                    1e:61
                Exponent: 65537 (0x10001)
        X509v3 extensions:
            X509v3 Extended Key Usage: 
                TLS Web Server Authentication
            X509v3 CRL Distribution Points: 

                Full Name:
                  URI:http://www.example.com/example_ca.crl

    Signature Algorithm: sha256WithRSAEncryption
         02:e8:4f:8d:a8:ee:b3:05:ec:f6:28:a5:72:0a:42:e4:1a:6c:
         88:47:78:d8:76:47:ba:8a:f9:cb:00:af:c8:1e:80:37:f8:6d:
         1c:00:07:11:2e:10:8c:a2:e3:1e:36:03:6c:ae:bb:cf:da:02:
         0a:cc:5a:cc:e0:7e:27:c4:7f:4d:f3:22:6f:04:4e:f0:30:92:
         96:fe:aa:ed:87:44:9e:d3:3c:8a:75:55:08:48:c1:35:57:21:
         15:f1:ae:60:04:5a:10:37:b8:09:7b:84:7f:16:51:2e:57:58:
         2f:94:c7:ee:5d:14:c9:24:ff:61:b6:a1:e8:d5:90:8e:7e:4c:
         2e:b6:7b:aa:4e:b8:3e:47:1b:eb:2d:f0:03:a5:2b:50:40:28:
         98:15:a4:96:5a:d3:19:1e:6a:db:44:6f:9c:6e:ea:12:71:85:
         e8:7f:33:84:7c:0e:5d:8a:d1:c2:84:c6:aa:7a:ff:62:21:a2:
         fe:c0:b4:89:bb:20:a3:8e:96:73:a8:06:93:2b:7e:e3:0c:22:
         22:2b:69:ce:57:5e:39:f9:b2:74:52:0f:c1:8d:5e:9f:e2:ba:
         72:31:0d:c9:96:66:aa:40:a4:f5:d5:0d:32:3d:02:6e:e4:81:
         25:49:9a:7f:c9:cf:07:22:4c:48:f1:4e:2d:45:cf:db:05:64:
         cd:99:3e:24
-----BEGIN CERTIFICATE-----
MIID2jCCAsKgAwIBAgIBATANBgkqhkiG9w0BAQsFADCBkzELMAkGA1UEBhMCRlIx
DzANBgNVBAgMBlJhZGl1czESMBAGA1UEBwwJU29tZXdoZXJlMRUwEwYDVQQKDAxF
eGFtcGxlIEluYy4xIDAeBgkqhkiG9w0BCQEWEWFkbWluQGV4YW1wbGUub3JnMSYw
JAYDVQQDDB1FeGFtcGxlIENlcnRpZmljYXRlIEF1dGhvcml0eTAeFw0yMTA4MjUw
NDQ4MjVaFw0yMTEwMjQwNDQ4MjVaMHwxCzAJBgNVBAYTAkZSMQ8wDQYDVQQIDAZS
YWRpdXMxFTATBgNVBAoMDEV4YW1wbGUgSW5jLjEjMCEGA1UEAwwaRXhhbXBsZSBT
ZXJ2ZXIgQ2VydGlmaWNhdGUxIDAeBgkqhkiG9w0BCQEWEWFkbWluQGV4YW1wbGUu
b3JnMIIBIjANBgkqhkiG9w0BAQEFAAOCAQ8AMIIBCgKCAQEAngzTNYMj87LdRWei
xqGsxySJsWLI2dc6dyeI1oxls9UON8SNKvmG8apWDWtoEvndBfvrDsRa1vLhfbIo
7x1hANXRgpLsuuYRF9pBq77SeN3/ey2g6LGGRoMJQBRLRG5UFO+I9HTj5oDH0xf9
aoiLU9xalDQaP3XVNLfVwgvxoRA1u9IUtCBGBjPE61ipvLNq4Ol8WWpzhGGbCEBR
9+/azQknfRpueqVgBTWo8j6oh7GU2SroE2sc725buLaKebzFKnF6gbsCIDMqjhdT
1D9W2PBvl5tVJu77Clfrc5Iz9DVodglnOmtRcmLnUABXEbyb4TuWkbzA8//qNrZ9
9QseYQIDAQABo08wTTATBgNVHSUEDDAKBggrBgEFBQcDATA2BgNVHR8ELzAtMCug
KaAnhiVodHRwOi8vd3d3LmV4YW1wbGUuY29tL2V4YW1wbGVfY2EuY3JsMA0GCSqG
SIb3DQEBCwUAA4IBAQAC6E+NqO6zBez2KKVyCkLkGmyIR3jYdke6ivnLAK/IHoA3
+G0cAAcRLhCMouMeNgNsrrvP2gIKzFrM4H4nxH9N8yJvBE7wMJKW/qrth0Se0zyK
dVUISME1VyEV8a5gBFoQN7gJe4R/FlEuV1gvlMfuXRTJJP9htqHo1ZCOfkwutnuq
Trg+RxvrLfADpStQQCiYFaSWWtMZHmrbRG+cbuoScYXofzOEfA5ditHChMaqev9i
IaL+wLSJuyCjjpZzqAaTK37jDCIiK2nOV145+bJ0Ug/BjV6f4rpyMQ3JlmaqQKT1
1Q0yPQJu5IElSZp/yc8HIkxI8U4tRc/bBWTNmT4k
-----END CERTIFICATE-----
